target datalayout = "e-m:e-p270:32:32-p271:32:32-p272:64:64-i64:64-i128:128-f80:128-n8:16:32:64-S128"
target triple = "x86_64-pc-linux-gnu"

%struct.ScanKeyData = type { i32, i16, i16, i32, i32, %struct.FmgrInfo, i64 }
%struct.FmgrInfo = type { ptr, i32, i16, i8, i8, i8, ptr, ptr, ptr }
%struct.FormData_pg_shdepend = type { i32, i32, i32, i32, i32, i32, i8 }
%struct.HeapTupleData = type { i32, %struct.ItemPointerData, i32, ptr }
%struct.ItemPointerData = type { %struct.BlockIdData, i16 }
%struct.BlockIdData = type { i16, i16 }
%struct.HeapTupleHeaderData = type { %union.anon, %struct.ItemPointerData, i16, i16, i8, [0 x i8] }
%union.anon = type { %struct.HeapTupleFields }
%struct.HeapTupleFields = type { i32, i32, %union.anon.0 }
%union.anon.0 = type { i32 }

@MyDatabaseId = external global i32, align 4

; Function Attrs: inlinehint nounwind uwtable
define internal ptr @GETSTRUCT(ptr noundef %0) #4 {
  %2 = alloca ptr, align 8
  store ptr %0, ptr %2, align 8
  %3 = load ptr, ptr %2, align 8
  %4 = getelementptr inbounds nuw %struct.HeapTupleData, ptr %3, i32 0, i32 3
  %5 = load ptr, ptr %4, align 8
  %6 = load ptr, ptr %2, align 8
  %7 = getelementptr inbounds nuw %struct.HeapTupleData, ptr %6, i32 0, i32 3
  %8 = load ptr, ptr %7, align 8
  %9 = getelementptr inbounds nuw %struct.HeapTupleHeaderData, ptr %8, i32 0, i32 4
  %10 = load i8, ptr %9, align 2
  %11 = zext i8 %10 to i32
  %12 = sext i32 %11 to i64
  %13 = getelementptr inbounds i8, ptr %5, i64 %12
  ret ptr %13
}

; Function Attrs: inlinehint nounwind uwtable
define internal i64 @Int32GetDatum(i32 noundef %0) #4 {
  %2 = alloca i32, align 4
  store i32 %0, ptr %2, align 4
  %3 = load i32, ptr %2, align 4
  %4 = sext i32 %3 to i64
  ret i64 %4
}

; Function Attrs: inlinehint nounwind uwtable
define internal i64 @ObjectIdGetDatum(i32 noundef %0) #4 {
  %2 = alloca i32, align 4
  store i32 %0, ptr %2, align 4
  %3 = load i32, ptr %2, align 4
  %4 = zext i32 %3 to i64
  ret i64 %4
}

; Function Attrs: nounwind uwtable
define internal i32 @classIdGetDbId(i32 noundef %0) #0 {
  %2 = alloca i32, align 4
  %3 = alloca i32, align 4
  store i32 %0, ptr %2, align 4
  call void @llvm.lifetime.start.p0(i64 4, ptr %3) #7
  %4 = load i32, ptr %2, align 4
  %5 = call zeroext i1 @IsSharedRelation(i32 noundef %4)
  br i1 %5, label %6, label %7

6:                                                ; preds = %1
  store i32 0, ptr %3, align 4
  br label %9

7:                                                ; preds = %1
  %8 = load i32, ptr @MyDatabaseId, align 4
  store i32 %8, ptr %3, align 4
  br label %9

9:                                                ; preds = %7, %6
  %10 = load i32, ptr %3, align 4
  call void @llvm.lifetime.end.p0(i64 4, ptr %3) #7
  ret i32 %10
}

; Function Attrs: nounwind uwtable
define internal void @shdepDropDependency(ptr noundef %0, i32 noundef %1, i32 noundef %2, i32 noundef %3, i1 noundef zeroext %4, i32 noundef %5, i32 noundef %6, i32 noundef %7) #0 {
  %9 = alloca ptr, align 8
  %10 = alloca i32, align 4
  %11 = alloca i32, align 4
  %12 = alloca i32, align 4
  %13 = alloca i8, align 1
  %14 = alloca i32, align 4
  %15 = alloca i32, align 4
  %16 = alloca i32, align 4
  %17 = alloca [4 x %struct.ScanKeyData], align 16
  %18 = alloca i32, align 4
  %19 = alloca ptr, align 8
  %20 = alloca ptr, align 8
  %21 = alloca ptr, align 8
  %22 = alloca i32, align 4
  store ptr %0, ptr %9, align 8
  store i32 %1, ptr %10, align 4
  store i32 %2, ptr %11, align 4
  store i32 %3, ptr %12, align 4
  %23 = zext i1 %4 to i8
  store i8 %23, ptr %13, align 1
  store i32 %5, ptr %14, align 4
  store i32 %6, ptr %15, align 4
  store i32 %7, ptr %16, align 4
  call void @llvm.lifetime.start.p0(i64 288, ptr %17) #7
  call void @llvm.lifetime.start.p0(i64 4, ptr %18) #7
  call void @llvm.lifetime.start.p0(i64 8, ptr %19) #7
  call void @llvm.lifetime.start.p0(i64 8, ptr %20) #7
  %24 = getelementptr inbounds [4 x %struct.ScanKeyData], ptr %17, i64 0, i64 0
  %25 = load i32, ptr %10, align 4
  %26 = call i32 @classIdGetDbId(i32 noundef %25)
  %27 = call i64 @ObjectIdGetDatum(i32 noundef %26)
  call void @ScanKeyInit(ptr noundef %24, i16 noundef signext 1, i16 noundef zeroext 3, i32 noundef 184, i64 noundef %27)
  %28 = getelementptr inbounds [4 x %struct.ScanKeyData], ptr %17, i64 0, i64 1
  %29 = load i32, ptr %10, align 4
  %30 = call i64 @ObjectIdGetDatum(i32 noundef %29)
  call void @ScanKeyInit(ptr noundef %28, i16 noundef signext 2, i16 noundef zeroext 3, i32 noundef 184, i64 noundef %30)
  %31 = getelementptr inbounds [4 x %struct.ScanKeyData], ptr %17, i64 0, i64 2
  %32 = load i32, ptr %11, align 4
  %33 = call i64 @ObjectIdGetDatum(i32 noundef %32)
  call void @ScanKeyInit(ptr noundef %31, i16 noundef signext 3, i16 noundef zeroext 3, i32 noundef 184, i64 noundef %33)
  %34 = load i8, ptr %13, align 1, !range !6, !noundef !7
  %35 = trunc i8 %34 to i1
  br i1 %35, label %36, label %37

36:                                               ; preds = %8
  store i32 3, ptr %18, align 4
  br label %41

37:                                               ; preds = %8
  %38 = getelementptr inbounds [4 x %struct.ScanKeyData], ptr %17, i64 0, i64 3
  %39 = load i32, ptr %12, align 4
  %40 = call i64 @Int32GetDatum(i32 noundef %39)
  call void @ScanKeyInit(ptr noundef %38, i16 noundef signext 4, i16 noundef zeroext 3, i32 noundef 65, i64 noundef %40)
  store i32 4, ptr %18, align 4
  br label %41

41:                                               ; preds = %37, %36
  %42 = load ptr, ptr %9, align 8
  %43 = load i32, ptr %18, align 4
  %44 = getelementptr inbounds [4 x %struct.ScanKeyData], ptr %17, i64 0, i64 0
  %45 = call ptr @systable_beginscan(ptr noundef %42, i32 noundef 1232, i1 noundef zeroext true, ptr noundef null, i32 noundef %43, ptr noundef %44)
  store ptr %45, ptr %19, align 8
  br label %46

46:                                               ; preds = %89, %87, %41
  %47 = load ptr, ptr %19, align 8
  %48 = call ptr @systable_getnext(ptr noundef %47)
  store ptr %48, ptr %20, align 8
  %49 = icmp ne ptr %48, null
  br i1 %49, label %50, label %90

50:                                               ; preds = %46
  call void @llvm.lifetime.start.p0(i64 8, ptr %21) #7
  %51 = load ptr, ptr %20, align 8
  %52 = call ptr @GETSTRUCT(ptr noundef %51)
  store ptr %52, ptr %21, align 8
  %53 = load i32, ptr %14, align 4
  %54 = icmp ne i32 %53, 0
  br i1 %54, label %55, label %62

55:                                               ; preds = %50
  %56 = load ptr, ptr %21, align 8
  %57 = getelementptr inbounds nuw %struct.FormData_pg_shdepend, ptr %56, i32 0, i32 4
  %58 = load i32, ptr %57, align 4
  %59 = load i32, ptr %14, align 4
  %60 = icmp ne i32 %58, %59
  br i1 %60, label %61, label %62

61:                                               ; preds = %55
  store i32 2, ptr %22, align 4
  br label %87, !llvm.loop !8

62:                                               ; preds = %55, %50
  %63 = load i32, ptr %15, align 4
  %64 = icmp ne i32 %63, 0
  br i1 %64, label %65, label %72

65:                                               ; preds = %62
  %66 = load ptr, ptr %21, align 8
  %67 = getelementptr inbounds nuw %struct.FormData_pg_shdepend, ptr %66, i32 0, i32 5
  %68 = load i32, ptr %67, align 4
  %69 = load i32, ptr %15, align 4
  %70 = icmp ne i32 %68, %69
  br i1 %70, label %71, label %72

71:                                               ; preds = %65
  store i32 2, ptr %22, align 4
  br label %87, !llvm.loop !8

72:                                               ; preds = %65, %62
  %73 = load i32, ptr %16, align 4
  %74 = icmp ne i32 %73, 0
  br i1 %74, label %75, label %83

75:                                               ; preds = %72
  %76 = load ptr, ptr %21, align 8
  %77 = getelementptr inbounds nuw %struct.FormData_pg_shdepend, ptr %76, i32 0, i32 6
  %78 = load i8, ptr %77, align 4
  %79 = sext i8 %78 to i32
  %80 = load i32, ptr %16, align 4
  %81 = icmp ne i32 %79, %80
  br i1 %81, label %82, label %83

82:                                               ; preds = %75
  store i32 2, ptr %22, align 4
  br label %87, !llvm.loop !8

83:                                               ; preds = %75, %72
  %84 = load ptr, ptr %9, align 8
  %85 = load ptr, ptr %20, align 8
  %86 = getelementptr inbounds nuw %struct.HeapTupleData, ptr %85, i32 0, i32 1
  call void @CatalogTupleDelete(ptr noundef %84, ptr noundef %86)
  store i32 0, ptr %22, align 4
  br label %87

87:                                               ; preds = %83, %82, %71, %61
  call void @llvm.lifetime.end.p0(i64 8, ptr %21) #7
  %88 = load i32, ptr %22, align 4
  switch i32 %88, label %92 [
    i32 0, label %89
    i32 2, label %46
  ]

89:                                               ; preds = %87
  br label %46, !llvm.loop !8

90:                                               ; preds = %46
  %91 = load ptr, ptr %19, align 8
  call void @systable_endscan(ptr noundef %91)
  call void @llvm.lifetime.end.p0(i64 8, ptr %20) #7
  call void @llvm.lifetime.end.p0(i64 8, ptr %19) #7
  call void @llvm.lifetime.end.p0(i64 4, ptr %18) #7
  call void @llvm.lifetime.end.p0(i64 288, ptr %17) #7
  ret void

92:                                               ; preds = %87
  unreachable
}