; Function Attrs: nounwind uwtable
define internal fastcc void @shdepDropDependency(ptr noundef %0, i32 noundef %1, i32 noundef %2, i32 noundef %3, i1 noundef zeroext %4, i32 noundef range(i32 0, 1261) %5, i32 noundef %6, i32 noundef range(i32 0, 106) %7) unnamed_addr #0 {
  %9 = alloca [4 x %struct.ScanKeyData], align 16
  call void @llvm.lifetime.start.p0(i64 288, ptr nonnull %9) #8
  %10 = tail call zeroext i1 @IsSharedRelation(i32 noundef %1) #8
  %11 = load i32, ptr @MyDatabaseId, align 4
  %12 = zext i32 %11 to i64
  %13 = select i1 %10, i64 0, i64 %12
  call void @ScanKeyInit(ptr noundef nonnull %9, i16 noundef signext 1, i16 noundef zeroext 3, i32 noundef 184, i64 noundef %13) #8
  %14 = getelementptr inbounds nuw i8, ptr %9, i64 72
  %15 = zext i32 %1 to i64
  call void @ScanKeyInit(ptr noundef nonnull %14, i16 noundef signext 2, i16 noundef zeroext 3, i32 noundef 184, i64 noundef %15) #8
  %16 = getelementptr inbounds nuw i8, ptr %9, i64 144
  %17 = zext i32 %2 to i64
  call void @ScanKeyInit(ptr noundef nonnull %16, i16 noundef signext 3, i16 noundef zeroext 3, i32 noundef 184, i64 noundef %17) #8
  br i1 %4, label %21, label %18

18:                                               ; preds = %8
  %19 = getelementptr inbounds nuw i8, ptr %9, i64 216
  %20 = sext i32 %3 to i64
  call void @ScanKeyInit(ptr noundef nonnull %19, i16 noundef signext 4, i16 noundef zeroext 3, i32 noundef 65, i64 noundef %20) #8
  br label %21

21:                                               ; preds = %8, %18
  %.0 = phi i32 [ 4, %18 ], [ 3, %8 ]
  %22 = call ptr @systable_beginscan(ptr noundef %0, i32 noundef 1232, i1 noundef zeroext true, ptr noundef null, i32 noundef %.0, ptr noundef nonnull %9) #8
  %23 = call ptr @systable_getnext(ptr noundef %22) #8
  %.not30 = icmp eq ptr %23, null
  br i1 %.not30, label %._crit_edge, label %.lr.ph

.lr.ph:                                           ; preds = %21
  %.not24 = icmp eq i32 %5, 0
  %.not26 = icmp eq i32 %6, 0
  %.not28 = icmp eq i32 %7, 0
  br i1 %.not24, label %.lr.ph.split.us, label %.lr.ph.split

.lr.ph.split.us:                                  ; preds = %.lr.ph
  br i1 %.not26, label %.lr.ph.split.us.split.us, label %.lr.ph.split.us.split

.lr.ph.split.us.split.us:                         ; preds = %.lr.ph.split.us
  br i1 %.not28, label %.lr.ph.split.us.split.us.split.us, label %.lr.ph.split.us.split.us.split

.lr.ph.split.us.split.us.split.us:                ; preds = %.lr.ph.split.us.split.us, %.lr.ph.split.us.split.us.split.us
  %24 = phi ptr [ %26, %.lr.ph.split.us.split.us.split.us ], [ %23, %.lr.ph.split.us.split.us ]
  %25 = getelementptr inbounds nuw i8, ptr %24, i64 4
  call void @CatalogTupleDelete(ptr noundef %0, ptr noundef nonnull %25) #8
  %26 = call ptr @systable_getnext(ptr noundef %22) #8
  %.not.us.us.us = icmp eq ptr %26, null
  br i1 %.not.us.us.us, label %._crit_edge, label %.lr.ph.split.us.split.us.split.us

.lr.ph.split.us.split.us.split:                   ; preds = %.lr.ph.split.us.split.us, %38
  %27 = phi ptr [ %39, %38 ], [ %23, %.lr.ph.split.us.split.us ]
  %28 = getelementptr i8, ptr %27, i64 16
  %.val.us.us = load ptr, ptr %28, align 8
  %29 = getelementptr inbounds nuw i8, ptr %.val.us.us, i64 22
  %30 = load i8, ptr %29, align 2
  %31 = zext i8 %30 to i64
  %32 = getelementptr inbounds nuw i8, ptr %.val.us.us, i64 %31
  %33 = getelementptr inbounds nuw i8, ptr %32, i64 24
  %34 = load i8, ptr %33, align 4
  %35 = sext i8 %34 to i32
  %.not29.us.us = icmp eq i32 %7, %35
  br i1 %.not29.us.us, label %36, label %38, !llvm.loop !6

36:                                               ; preds = %.lr.ph.split.us.split.us.split
  %37 = getelementptr inbounds nuw i8, ptr %27, i64 4
  call void @CatalogTupleDelete(ptr noundef %0, ptr noundef nonnull %37) #8
  br label %38

38:                                               ; preds = %36, %.lr.ph.split.us.split.us.split
  %39 = call ptr @systable_getnext(ptr noundef %22) #8
  %.not.us.us = icmp eq ptr %39, null
  br i1 %.not.us.us, label %._crit_edge, label %.lr.ph.split.us.split.us.split

.lr.ph.split.us.split:                            ; preds = %.lr.ph.split.us
  br i1 %.not28, label %.lr.ph.split.us.split.split.us, label %.lr.ph.split.us.split.split

.lr.ph.split.us.split.split.us:                   ; preds = %.lr.ph.split.us.split, %50
  %40 = phi ptr [ %51, %50 ], [ %23, %.lr.ph.split.us.split ]
  %41 = getelementptr i8, ptr %40, i64 16
  %.val.us.us38 = load ptr, ptr %41, align 8
  %42 = getelementptr inbounds nuw i8, ptr %.val.us.us38, i64 22
  %43 = load i8, ptr %42, align 2
  %44 = zext i8 %43 to i64
  %45 = getelementptr inbounds nuw i8, ptr %.val.us.us38, i64 %44
  %46 = getelementptr inbounds nuw i8, ptr %45, i64 20
  %47 = load i32, ptr %46, align 4
  %.not27.us.us = icmp eq i32 %47, %6
  br i1 %.not27.us.us, label %48, label %50, !llvm.loop !6

48:                                               ; preds = %.lr.ph.split.us.split.split.us
  %49 = getelementptr inbounds nuw i8, ptr %40, i64 4
  call void @CatalogTupleDelete(ptr noundef %0, ptr noundef nonnull %49) #8
  br label %50

50:                                               ; preds = %48, %.lr.ph.split.us.split.split.us
  %51 = call ptr @systable_getnext(ptr noundef %22) #8
  %.not.us.us39 = icmp eq ptr %51, null
  br i1 %.not.us.us39, label %._crit_edge, label %.lr.ph.split.us.split.split.us

.lr.ph.split.us.split.split:                      ; preds = %.lr.ph.split.us.split, %66
  %52 = phi ptr [ %67, %66 ], [ %23, %.lr.ph.split.us.split ]
  %53 = getelementptr i8, ptr %52, i64 16
  %.val.us = load ptr, ptr %53, align 8
  %54 = getelementptr inbounds nuw i8, ptr %.val.us, i64 22
  %55 = load i8, ptr %54, align 2
  %56 = zext i8 %55 to i64
  %57 = getelementptr inbounds nuw i8, ptr %.val.us, i64 %56
  %58 = getelementptr inbounds nuw i8, ptr %57, i64 20
  %59 = load i32, ptr %58, align 4
  %.not27.us = icmp eq i32 %59, %6
  br i1 %.not27.us, label %60, label %66, !llvm.loop !6

60:                                               ; preds = %.lr.ph.split.us.split.split
  %61 = getelementptr inbounds nuw i8, ptr %57, i64 24
  %62 = load i8, ptr %61, align 4
  %63 = sext i8 %62 to i32
  %.not29.us = icmp eq i32 %7, %63
  br i1 %.not29.us, label %64, label %66, !llvm.loop !6

64:                                               ; preds = %60
  %65 = getelementptr inbounds nuw i8, ptr %52, i64 4
  call void @CatalogTupleDelete(ptr noundef %0, ptr noundef nonnull %65) #8
  br label %66

66:                                               ; preds = %64, %60, %.lr.ph.split.us.split.split
  %67 = call ptr @systable_getnext(ptr noundef %22) #8
  %.not.us = icmp eq ptr %67, null
  br i1 %.not.us, label %._crit_edge, label %.lr.ph.split.us.split.split

.lr.ph.split:                                     ; preds = %.lr.ph
  br i1 %.not26, label %.lr.ph.split.split.us, label %.lr.ph.split.split

.lr.ph.split.split.us:                            ; preds = %.lr.ph.split
  br i1 %.not28, label %.lr.ph.split.split.us.split.us, label %.lr.ph.split.split.us.split

.lr.ph.split.split.us.split.us:                   ; preds = %.lr.ph.split.split.us, %78
  %68 = phi ptr [ %79, %78 ], [ %23, %.lr.ph.split.split.us ]
  %69 = getelementptr i8, ptr %68, i64 16
  %.val.us31.us = load ptr, ptr %69, align 8
  %70 = getelementptr inbounds nuw i8, ptr %.val.us31.us, i64 22
  %71 = load i8, ptr %70, align 2
  %72 = zext i8 %71 to i64
  %73 = getelementptr inbounds nuw i8, ptr %.val.us31.us, i64 %72
  %74 = getelementptr inbounds nuw i8, ptr %73, i64 16
  %75 = load i32, ptr %74, align 4
  %.not25.us.us = icmp eq i32 %75, %5
  br i1 %.not25.us.us, label %76, label %78, !llvm.loop !6

76:                                               ; preds = %.lr.ph.split.split.us.split.us
  %77 = getelementptr inbounds nuw i8, ptr %68, i64 4
  call void @CatalogTupleDelete(ptr noundef %0, ptr noundef nonnull %77) #8
  br label %78

78:                                               ; preds = %76, %.lr.ph.split.split.us.split.us
  %79 = call ptr @systable_getnext(ptr noundef %22) #8
  %.not.us33.us = icmp eq ptr %79, null
  br i1 %.not.us33.us, label %._crit_edge, label %.lr.ph.split.split.us.split.us

.lr.ph.split.split.us.split:                      ; preds = %.lr.ph.split.split.us, %94
  %80 = phi ptr [ %95, %94 ], [ %23, %.lr.ph.split.split.us ]
  %81 = getelementptr i8, ptr %80, i64 16
  %.val.us31 = load ptr, ptr %81, align 8
  %82 = getelementptr inbounds nuw i8, ptr %.val.us31, i64 22
  %83 = load i8, ptr %82, align 2
  %84 = zext i8 %83 to i64
  %85 = getelementptr inbounds nuw i8, ptr %.val.us31, i64 %84
  %86 = getelementptr inbounds nuw i8, ptr %85, i64 16
  %87 = load i32, ptr %86, align 4
  %.not25.us = icmp eq i32 %87, %5
  br i1 %.not25.us, label %88, label %94, !llvm.loop !6

88:                                               ; preds = %.lr.ph.split.split.us.split
  %89 = getelementptr inbounds nuw i8, ptr %85, i64 24
  %90 = load i8, ptr %89, align 4
  %91 = sext i8 %90 to i32
  %.not29.us32 = icmp eq i32 %7, %91
  br i1 %.not29.us32, label %92, label %94, !llvm.loop !6

92:                                               ; preds = %88
  %93 = getelementptr inbounds nuw i8, ptr %80, i64 4
  call void @CatalogTupleDelete(ptr noundef %0, ptr noundef nonnull %93) #8
  br label %94

94:                                               ; preds = %92, %88, %.lr.ph.split.split.us.split
  %95 = call ptr @systable_getnext(ptr noundef %22) #8
  %.not.us33 = icmp eq ptr %95, null
  br i1 %.not.us33, label %._crit_edge, label %.lr.ph.split.split.us.split

.lr.ph.split.split:                               ; preds = %.lr.ph.split
  br i1 %.not28, label %.lr.ph.split.split.split.us, label %.lr.ph.split.split.split

.lr.ph.split.split.split.us:                      ; preds = %.lr.ph.split.split, %109
  %96 = phi ptr [ %110, %109 ], [ %23, %.lr.ph.split.split ]
  %97 = getelementptr i8, ptr %96, i64 16
  %.val.us34 = load ptr, ptr %97, align 8
  %98 = getelementptr inbounds nuw i8, ptr %.val.us34, i64 22
  %99 = load i8, ptr %98, align 2
  %100 = zext i8 %99 to i64
  %101 = getelementptr inbounds nuw i8, ptr %.val.us34, i64 %100
  %102 = getelementptr inbounds nuw i8, ptr %101, i64 16
  %103 = load i32, ptr %102, align 4
  %.not25.us35 = icmp eq i32 %103, %5
  br i1 %.not25.us35, label %104, label %109, !llvm.loop !6

104:                                              ; preds = %.lr.ph.split.split.split.us
  %105 = getelementptr inbounds nuw i8, ptr %101, i64 20
  %106 = load i32, ptr %105, align 4
  %.not27.us36 = icmp eq i32 %106, %6
  br i1 %.not27.us36, label %107, label %109, !llvm.loop !6

107:                                              ; preds = %104
  %108 = getelementptr inbounds nuw i8, ptr %96, i64 4
  call void @CatalogTupleDelete(ptr noundef %0, ptr noundef nonnull %108) #8
  br label %109

109:                                              ; preds = %107, %104, %.lr.ph.split.split.split.us
  %110 = call ptr @systable_getnext(ptr noundef %22) #8
  %.not.us37 = icmp eq ptr %110, null
  br i1 %.not.us37, label %._crit_edge, label %.lr.ph.split.split.split.us

.lr.ph.split.split.split:                         ; preds = %.lr.ph.split.split, %128
  %111 = phi ptr [ %129, %128 ], [ %23, %.lr.ph.split.split ]
  %112 = getelementptr i8, ptr %111, i64 16
  %.val = load ptr, ptr %112, align 8
  %113 = getelementptr inbounds nuw i8, ptr %.val, i64 22
  %114 = load i8, ptr %113, align 2
  %115 = zext i8 %114 to i64
  %116 = getelementptr inbounds nuw i8, ptr %.val, i64 %115
  %117 = getelementptr inbounds nuw i8, ptr %116, i64 16
  %118 = load i32, ptr %117, align 4
  %.not25 = icmp eq i32 %118, %5
  br i1 %.not25, label %119, label %128, !llvm.loop !6

119:                                              ; preds = %.lr.ph.split.split.split
  %120 = getelementptr inbounds nuw i8, ptr %116, i64 20
  %121 = load i32, ptr %120, align 4
  %.not27 = icmp eq i32 %121, %6
  br i1 %.not27, label %122, label %128, !llvm.loop !6

122:                                              ; preds = %119
  %123 = getelementptr inbounds nuw i8, ptr %116, i64 24
  %124 = load i8, ptr %123, align 4
  %125 = sext i8 %124 to i32
  %.not29 = icmp eq i32 %7, %125
  br i1 %.not29, label %126, label %128, !llvm.loop !6

126:                                              ; preds = %122
  %127 = getelementptr inbounds nuw i8, ptr %111, i64 4
  call void @CatalogTupleDelete(ptr noundef %0, ptr noundef nonnull %127) #8
  br label %128

128:                                              ; preds = %122, %119, %.lr.ph.split.split.split, %126
  %129 = call ptr @systable_getnext(ptr noundef %22) #8
  %.not = icmp eq ptr %129, null
  br i1 %.not, label %._crit_edge, label %.lr.ph.split.split.split

._crit_edge:                                      ; preds = %128, %109, %94, %78, %66, %50, %38, %.lr.ph.split.us.split.us.split.us, %21
  call void @systable_endscan(ptr noundef %22) #8
  call void @llvm.lifetime.end.p0(i64 288, ptr nonnull %9) #8
  ret void
}